; Function Attrs: nounwind uwtable
define hidden i32 @SDL_GetAudioStreamProperties_REAL(ptr noundef captures(address_is_null) %0) local_unnamed_addr #2 {
  %.not = icmp eq ptr %0, null
  br i1 %.not, label %2, label %4

2:                                                ; preds = %1
  %3 = tail call zeroext i1 (ptr, ...) @SDL_SetError_REAL(ptr noundef nonnull @.str, ptr noundef nonnull @.str.1) #11
  br label %14

4:                                                ; preds = %1
  %5 = load ptr, ptr %0, align 8
  tail call void @SDL_LockMutex_REAL(ptr noundef %5) #11
  %6 = getelementptr inbounds nuw i8, ptr %0, i64 8
  %7 = load i32, ptr %6, align 8
  %8 = icmp eq i32 %7, 0
  br i1 %8, label %9, label %11

9:                                                ; preds = %4
  %10 = tail call i32 @SDL_CreateProperties_REAL() #11
  store i32 %10, ptr %6, align 8
  br label %11

11:                                               ; preds = %9, %4
  %12 = load ptr, ptr %0, align 8
  tail call void @SDL_UnlockMutex_REAL(ptr noundef %12) #11
  %13 = load i32, ptr %6, align 8
  br label %14

14:                                               ; preds = %11, %2
  %.0 = phi i32 [ %13, %11 ], [ 0, %2 ]
  ret i32 %.0
}